; Function Attrs: noreturn nounwind uwtable
define dso_local noundef i32 @main(i32 noundef %0, ptr noundef %1) local_unnamed_addr #0 {
  %3 = alloca i32, align 4
  %4 = alloca %struct._connParams, align 8
  %5 = alloca %struct.PQExpBufferData, align 8
  call void @llvm.lifetime.start.p0(i64 4, ptr nonnull %3) #6
  call void @llvm.lifetime.start.p0(i64 48, ptr nonnull %4) #6
  call void @llvm.lifetime.start.p0(i64 24, ptr nonnull %5) #6
  %6 = load ptr, ptr %1, align 8
  tail call void @pg_logging_init(ptr noundef %6) #6
  %7 = load ptr, ptr %1, align 8
  %8 = tail call ptr @get_progname(ptr noundef %7) #6
  %9 = load ptr, ptr %1, align 8
  tail call void @set_pglocale_pgservice(ptr noundef %9, ptr noundef nonnull @.str.8) #6
  tail call void @handle_help_version_opts(i32 noundef %0, ptr noundef nonnull %1, ptr noundef nonnull @.str.9, ptr noundef nonnull @help) #6
  br label %10

10:                                               ; preds = %.backedge, %2
  %.043 = phi ptr [ null, %2 ], [ %.043.be, %.backedge ]
  %.041 = phi ptr [ null, %2 ], [ %.041.be, %.backedge ]
  %.039 = phi i32 [ 0, %2 ], [ %.039.be, %.backedge ]
  %.037 = phi i1 [ false, %2 ], [ %.037.be, %.backedge ]
  %.035 = phi i8 [ 0, %2 ], [ %.035.be, %.backedge ]
  %.033 = phi ptr [ null, %2 ], [ %.033.be, %.backedge ]
  %11 = call i32 @getopt_long(i32 noundef %0, ptr noundef nonnull %1, ptr noundef nonnull @.str.10, ptr noundef nonnull @main.long_options, ptr noundef nonnull %3) #6
  switch i32 %11, label %25 [
    i32 -1, label %26
    i32 101, label %12
    i32 104, label %13
    i32 105, label %16
    i32 112, label %17
    i32 85, label %20
    i32 119, label %23
    i32 87, label %24
    i32 0, label %.backedge
  ]

.backedge:                                        ; preds = %10, %24, %23, %20, %17, %16, %13, %12
  %.043.be = phi ptr [ %.043, %24 ], [ %.043, %23 ], [ %.043, %20 ], [ %19, %17 ], [ %.043, %16 ], [ %.043, %13 ], [ %.043, %12 ], [ %.043, %10 ]
  %.041.be = phi ptr [ %.041, %24 ], [ %.041, %23 ], [ %22, %20 ], [ %.041, %17 ], [ %.041, %16 ], [ %.041, %13 ], [ %.041, %12 ], [ %.041, %10 ]
  %.039.be = phi i32 [ 2, %24 ], [ 1, %23 ], [ %.039, %20 ], [ %.039, %17 ], [ %.039, %16 ], [ %.039, %13 ], [ %.039, %12 ], [ %.039, %10 ]
  %.037.be = phi i1 [ %.037, %24 ], [ %.037, %23 ], [ %.037, %20 ], [ %.037, %17 ], [ %.037, %16 ], [ %.037, %13 ], [ true, %12 ], [ %.037, %10 ]
  %.035.be = phi i8 [ %.035, %24 ], [ %.035, %23 ], [ %.035, %20 ], [ %.035, %17 ], [ 1, %16 ], [ %.035, %13 ], [ %.035, %12 ], [ %.035, %10 ]
  %.033.be = phi ptr [ %.033, %24 ], [ %.033, %23 ], [ %.033, %20 ], [ %.033, %17 ], [ %.033, %16 ], [ %15, %13 ], [ %.033, %12 ], [ %.033, %10 ]
  br label %10, !llvm.loop !4

12:                                               ; preds = %10
  br label %.backedge

13:                                               ; preds = %10
  %14 = load ptr, ptr @optarg, align 8
  %15 = call ptr @pg_strdup(ptr noundef %14) #6
  br label %.backedge

16:                                               ; preds = %10
  br label %.backedge

17:                                               ; preds = %10
  %18 = load ptr, ptr @optarg, align 8
  %19 = call ptr @pg_strdup(ptr noundef %18) #6
  br label %.backedge

20:                                               ; preds = %10
  %21 = load ptr, ptr @optarg, align 8
  %22 = call ptr @pg_strdup(ptr noundef %21) #6
  br label %.backedge

23:                                               ; preds = %10
  br label %.backedge

24:                                               ; preds = %10
  br label %.backedge

25:                                               ; preds = %10
  call void (i32, i32, ptr, ...) @pg_log_generic(i32 noundef 4, i32 noundef 2, ptr noundef nonnull @.str.11, ptr noundef %8) #6
  call void @exit(i32 noundef 1) #7
  unreachable

26:                                               ; preds = %10
  %27 = load i32, ptr @optind, align 4
  %28 = sub i32 %0, %27
  switch i32 %28, label %29 [
    i32 0, label %.thread
    i32 1, label %34
  ]

29:                                               ; preds = %26
  %30 = add i32 %27, 1
  %31 = sext i32 %30 to i64
  %32 = getelementptr inbounds ptr, ptr %1, i64 %31
  %33 = load ptr, ptr %32, align 8
  call void (i32, i32, ptr, ...) @pg_log_generic(i32 noundef 4, i32 noundef 0, ptr noundef nonnull @.str.12, ptr noundef %33) #6
  call void (i32, i32, ptr, ...) @pg_log_generic(i32 noundef 4, i32 noundef 2, ptr noundef nonnull @.str.11, ptr noundef %8) #6
  call void @exit(i32 noundef 1) #7
  unreachable

34:                                               ; preds = %26
  %35 = sext i32 %27 to i64
  %36 = getelementptr inbounds ptr, ptr %1, i64 %35
  %37 = load ptr, ptr %36, align 8
  %38 = icmp eq ptr %37, null
  br i1 %38, label %.thread, label %42

.thread:                                          ; preds = %26, %34
  %39 = trunc nuw i8 %.035 to i1
  br i1 %39, label %.thread49, label %41

.thread49:                                        ; preds = %.thread
  %40 = call ptr @simple_prompt(ptr noundef nonnull @.str.13, i1 noundef zeroext true) #6
  br label %44

41:                                               ; preds = %.thread
  call void (i32, i32, ptr, ...) @pg_log_generic(i32 noundef 4, i32 noundef 0, ptr noundef nonnull @.str.14) #6
  call void (i32, i32, ptr, ...) @pg_log_generic(i32 noundef 4, i32 noundef 2, ptr noundef nonnull @.str.11, ptr noundef %8) #6
  call void @exit(i32 noundef 1) #7
  unreachable

42:                                               ; preds = %34
  %43 = trunc nuw i8 %.035 to i1
  br i1 %43, label %44, label %48

44:                                               ; preds = %.thread49, %42
  %.151 = phi ptr [ %40, %.thread49 ], [ %37, %42 ]
  %45 = call i32 (ptr, ...) @pg_printf(ptr noundef nonnull @.str.15, ptr noundef %.151) #6
  %46 = call zeroext i1 @yesno_prompt(ptr noundef nonnull @.str.16) #6
  br i1 %46, label %48, label %47

47:                                               ; preds = %44
  call void @exit(i32 noundef 0) #8
  unreachable

48:                                               ; preds = %44, %42
  %.152 = phi ptr [ %.151, %44 ], [ %37, %42 ]
  store ptr null, ptr %4, align 8
  %49 = getelementptr inbounds nuw i8, ptr %4, i64 8
  store ptr %.033, ptr %49, align 8
  %50 = getelementptr inbounds nuw i8, ptr %4, i64 16
  store ptr %.043, ptr %50, align 8
  %51 = getelementptr inbounds nuw i8, ptr %4, i64 24
  store ptr %.041, ptr %51, align 8
  %52 = getelementptr inbounds nuw i8, ptr %4, i64 32
  store i32 %.039, ptr %52, align 8
  %53 = getelementptr inbounds nuw i8, ptr %4, i64 40
  store ptr null, ptr %53, align 8
  %54 = call ptr @connectMaintenanceDatabase(ptr noundef nonnull %4, ptr noundef %8, i1 noundef zeroext %.037) #6
  call void @initPQExpBuffer(ptr noundef nonnull %5) #6
  %55 = load i32, ptr @main.if_exists, align 4
  %.not46 = icmp eq i32 %55, 0
  %56 = select i1 %.not46, ptr @.str.19, ptr @.str.18
  %57 = call i32 @PQclientEncoding(ptr noundef %54) #6
  %58 = call ptr @fmtIdEnc(ptr noundef %.152, i32 noundef %57) #6
  call void (ptr, ptr, ...) @appendPQExpBuffer(ptr noundef nonnull %5, ptr noundef nonnull @.str.17, ptr noundef nonnull %56, ptr noundef %58) #6
  br i1 %.037, label %59, label %62

59:                                               ; preds = %48
  %60 = load ptr, ptr %5, align 8
  %61 = call i32 (ptr, ...) @pg_printf(ptr noundef nonnull @.str.20, ptr noundef %60) #6
  br label %62

62:                                               ; preds = %59, %48
  %63 = load ptr, ptr %5, align 8
  %64 = call ptr @PQexec(ptr noundef %54, ptr noundef %63) #6
  %65 = call i32 @PQresultStatus(ptr noundef %64) #6
  %.not47 = icmp eq i32 %65, 1
  br i1 %.not47, label %68, label %66

66:                                               ; preds = %62
  %67 = call ptr @PQerrorMessage(ptr noundef %54) #6
  call void (i32, i32, ptr, ...) @pg_log_generic(i32 noundef 4, i32 noundef 0, ptr noundef nonnull @.str.21, ptr noundef %.152, ptr noundef %67) #6
  call void @PQfinish(ptr noundef %54) #6
  call void @exit(i32 noundef 1) #7
  unreachable

68:                                               ; preds = %62
  call void @PQclear(ptr noundef %64) #6
  call void @PQfinish(ptr noundef %54) #6
  call void @exit(i32 noundef 0) #8
  unreachable
}